; Function Attrs: nounwind uwtable
define internal fastcc void @posix_buffer_write(i32 noundef %0, ptr noundef nonnull readonly captures(none) %1, ptr noundef readonly captures(none) %2) unnamed_addr #0 {
  %4 = getelementptr inbounds nuw i8, ptr %2, i64 36
  %5 = load i32, ptr %4, align 4, !tbaa !18
  %6 = add nsw i32 %5, -1
  %7 = icmp sge i32 %0, %6
  %8 = load i32, ptr @cont_dim, align 4
  %.not = icmp eq i32 %0, %8
  %or.cond = select i1 %7, i1 true, i1 %.not
  %9 = sext i32 %0 to i64
  %10 = getelementptr inbounds [32 x i64], ptr @buf_offset, i64 0, i64 %9
  br i1 %or.cond, label %22, label %.preheader

.preheader:                                       ; preds = %3
  %11 = getelementptr inbounds nuw i8, ptr %2, i64 296
  %12 = getelementptr inbounds [32 x i64], ptr %11, i64 0, i64 %9
  %13 = load i64, ptr %12, align 8, !tbaa !17
  %.not12 = icmp eq i64 %13, 0
  br i1 %.not12, label %.loopexit, label %.lr.ph

.lr.ph:                                           ; preds = %.preheader
  %14 = add nsw i32 %0, 1
  br label %19

15:                                               ; preds = %19
  %16 = add nuw i64 %.0401, 1
  %17 = load i64, ptr %12, align 8, !tbaa !17
  %18 = icmp ult i64 %16, %17
  br i1 %18, label %19, label %.loopexit, !llvm.loop !51

19:                                               ; preds = %.lr.ph, %15
  %.0401 = phi i64 [ 0, %.lr.ph ], [ %16, %15 ]
  store i64 %.0401, ptr %10, align 8, !tbaa !17
  tail call fastcc void @posix_buffer_write(i32 noundef %14, ptr noundef %1, ptr noundef nonnull %2)
  %20 = load i32, ptr @cont_dim, align 4, !tbaa !19
  %21 = icmp eq i32 %14, %20
  br i1 %21, label %.loopexit, label %15

22:                                               ; preds = %3
  store i64 0, ptr %10, align 8, !tbaa !17
  %23 = icmp sgt i32 %5, 0
  br i1 %23, label %.lr.ph9, label %._crit_edge10

.lr.ph9:                                          ; preds = %22
  %24 = getelementptr inbounds nuw i8, ptr %2, i64 40
  %25 = zext nneg i32 %5 to i64
  %wide.trip.count20 = zext nneg i32 %5 to i64
  br label %26

26:                                               ; preds = %.lr.ph9, %._crit_edge
  %indvars.iv17 = phi i64 [ 0, %.lr.ph9 ], [ %indvars.iv.next18, %._crit_edge ]
  %indvars.iv = phi i64 [ 1, %.lr.ph9 ], [ %indvars.iv.next, %._crit_edge ]
  %.0386 = phi i64 [ 0, %.lr.ph9 ], [ %37, %._crit_edge ]
  %indvars.iv.next18 = add nuw nsw i64 %indvars.iv17, 1
  %27 = icmp samesign ult i64 %indvars.iv.next18, %25
  br i1 %27, label %.lr.ph5, label %._crit_edge

.lr.ph5:                                          ; preds = %26, %.lr.ph5
  %indvars.iv14 = phi i64 [ %indvars.iv.next15, %.lr.ph5 ], [ %indvars.iv, %26 ]
  %.0393 = phi i64 [ %30, %.lr.ph5 ], [ 1, %26 ]
  %28 = getelementptr inbounds nuw [32 x i64], ptr %24, i64 0, i64 %indvars.iv14
  %29 = load i64, ptr %28, align 8, !tbaa !17
  %30 = mul nsw i64 %29, %.0393
  %indvars.iv.next15 = add nuw nsw i64 %indvars.iv14, 1
  %exitcond.not = icmp eq i64 %indvars.iv.next15, %wide.trip.count20
  br i1 %exitcond.not, label %._crit_edge, label %.lr.ph5, !llvm.loop !52

._crit_edge:                                      ; preds = %.lr.ph5, %26
  %.039.lcssa = phi i64 [ 1, %26 ], [ %30, %.lr.ph5 ]
  %31 = getelementptr inbounds nuw [32 x i64], ptr @offset, i64 0, i64 %indvars.iv17
  %32 = load i64, ptr %31, align 8, !tbaa !17
  %33 = getelementptr inbounds nuw [32 x i64], ptr @buf_offset, i64 0, i64 %indvars.iv17
  %34 = load i64, ptr %33, align 8, !tbaa !17
  %35 = add nsw i64 %34, %32
  %36 = mul nsw i64 %35, %.039.lcssa
  %37 = add nsw i64 %36, %.0386
  %indvars.iv.next = add nuw nsw i64 %indvars.iv, 1
  %exitcond21.not = icmp eq i64 %indvars.iv.next18, %wide.trip.count20
  br i1 %exitcond21.not, label %._crit_edge10, label %26, !llvm.loop !53

._crit_edge10:                                    ; preds = %._crit_edge, %22
  %.038.lcssa = phi i64 [ 0, %22 ], [ %37, %._crit_edge ]
  %38 = load i32, ptr %1, align 8, !tbaa !10
  %39 = tail call i64 @lseek64(i32 noundef %38, i64 noundef %.038.lcssa, i32 noundef 0) #17
  %40 = icmp sgt i64 %39, -1
  br i1 %40, label %44, label %41

41:                                               ; preds = %._crit_edge10
  %42 = load ptr, ptr @stderr, align 8, !tbaa !11
  %43 = tail call i32 (ptr, ptr, ...) @fprintf(ptr noundef %42, ptr noundef nonnull @.str.7, ptr noundef nonnull @.str.41, i32 noundef 730, ptr noundef nonnull @.str.9) #18
  br label %.loopexit

44:                                               ; preds = %._crit_edge10
  %45 = load i64, ptr @cont_size, align 8, !tbaa !17
  %46 = load i32, ptr %1, align 8, !tbaa !10
  %47 = load ptr, ptr @buf_p, align 8, !tbaa !26
  %48 = tail call i64 @write(i32 noundef %46, ptr noundef %47, i64 noundef %45) #17
  %49 = icmp eq i64 %45, %48
  br i1 %49, label %53, label %50

50:                                               ; preds = %44
  %51 = load ptr, ptr @stderr, align 8, !tbaa !11
  %52 = tail call i32 (ptr, ptr, ...) @fprintf(ptr noundef %51, ptr noundef nonnull @.str.7, ptr noundef nonnull @.str.42, i32 noundef 733, ptr noundef nonnull @.str.9) #18
  br label %.loopexit

53:                                               ; preds = %44
  %54 = load i64, ptr @cont_size, align 8, !tbaa !17
  %55 = load ptr, ptr @buf_p, align 8, !tbaa !26
  %56 = getelementptr inbounds nuw i8, ptr %55, i64 %54
  store ptr %56, ptr @buf_p, align 8, !tbaa !26
  br label %.loopexit

.loopexit:                                        ; preds = %15, %19, %.preheader, %41, %50, %53
  ret void
}